; Function Attrs: nounwind uwtable
define dso_local void @zfree_no_tcache(ptr noundef %ptr) local_unnamed_addr #3 {
entry:
  %cmp = icmp eq ptr %ptr, null
  br i1 %cmp, label %return, label %if.end

if.end:                                           ; preds = %entry
  %call = tail call i64 @je_malloc_usable_size(ptr noundef nonnull %ptr) #24
  %0 = atomicrmw sub ptr @used_memory, i64 %call monotonic, align 8
  tail call void @je_dallocx(ptr noundef nonnull %ptr, i32 noundef 256) #24
  br label %return

return:                                           ; preds = %entry, %if.end
  ret void
}